target datalayout = "e-m:e-p270:32:32-p271:32:32-p272:64:64-i64:64-i128:128-f80:128-n8:16:32:64-S128"
target triple = "x86_64-unknown-linux-gnu"

%"class.google::protobuf::compiler::SourceTreeDescriptorDatabase" = type { %"class.google::protobuf::DescriptorDatabase", ptr, ptr, ptr, i8, %"class.google::protobuf::compiler::SourceLocationTable", %"class.google::protobuf::compiler::SourceTreeDescriptorDatabase::ValidationErrorCollector" }
%"class.google::protobuf::DescriptorDatabase" = type { ptr }
%"class.google::protobuf::compiler::SourceLocationTable" = type { %"class.absl::lts_20230802::flat_hash_map", %"class.absl::lts_20230802::flat_hash_map.7" }
%"class.absl::lts_20230802::flat_hash_map" = type { %"class.absl::lts_20230802::container_internal::raw_hash_map" }
%"class.absl::lts_20230802::container_internal::raw_hash_map" = type { %"class.absl::lts_20230802::container_internal::raw_hash_set" }
%"class.absl::lts_20230802::container_internal::raw_hash_set" = type { %"class.absl::lts_20230802::container_internal::CompressedTuple" }
%"class.absl::lts_20230802::container_internal::CompressedTuple" = type { %"struct.absl::lts_20230802::container_internal::internal_compressed_tuple::CompressedTupleImpl" }
%"struct.absl::lts_20230802::container_internal::internal_compressed_tuple::CompressedTupleImpl" = type { %"struct.absl::lts_20230802::container_internal::internal_compressed_tuple::Storage" }
%"struct.absl::lts_20230802::container_internal::internal_compressed_tuple::Storage" = type { %"class.absl::lts_20230802::container_internal::CommonFields" }
%"class.absl::lts_20230802::container_internal::CommonFields" = type { ptr, ptr, i64, %"class.absl::lts_20230802::container_internal::CompressedTuple.0" }
%"class.absl::lts_20230802::container_internal::CompressedTuple.0" = type { %"struct.absl::lts_20230802::container_internal::internal_compressed_tuple::CompressedTupleImpl.1" }
%"struct.absl::lts_20230802::container_internal::internal_compressed_tuple::CompressedTupleImpl.1" = type { %"struct.absl::lts_20230802::container_internal::internal_compressed_tuple::Storage.2" }
%"struct.absl::lts_20230802::container_internal::internal_compressed_tuple::Storage.2" = type { i64 }
%"class.absl::lts_20230802::flat_hash_map.7" = type { %"class.absl::lts_20230802::container_internal::raw_hash_map.8" }
%"class.absl::lts_20230802::container_internal::raw_hash_map.8" = type { %"class.absl::lts_20230802::container_internal::raw_hash_set.9" }
%"class.absl::lts_20230802::container_internal::raw_hash_set.9" = type { %"class.absl::lts_20230802::container_internal::CompressedTuple.10" }
%"class.absl::lts_20230802::container_internal::CompressedTuple.10" = type { %"struct.absl::lts_20230802::container_internal::internal_compressed_tuple::CompressedTupleImpl.11" }
%"struct.absl::lts_20230802::container_internal::internal_compressed_tuple::CompressedTupleImpl.11" = type { %"struct.absl::lts_20230802::container_internal::internal_compressed_tuple::Storage" }
%"class.google::protobuf::compiler::SourceTreeDescriptorDatabase::ValidationErrorCollector" = type { %"class.google::protobuf::DescriptorPool::ErrorCollector", ptr }
%"class.google::protobuf::DescriptorPool::ErrorCollector" = type { ptr }

@_ZTVN6google8protobuf18DescriptorDatabaseE = external unnamed_addr constant { [9 x ptr] }, align 8
@_ZN6google8protobuf8compiler28SourceTreeDescriptorDatabase24ValidationErrorCollectorC1EPS2_ = unnamed_addr alias void (ptr, ptr), ptr @_ZN6google8protobuf8compiler28SourceTreeDescriptorDatabase24ValidationErrorCollectorC2EPS2_

; Function Attrs: mustprogress nounwind uwtable
define linkonce_odr hidden void @_ZN6google8protobuf18DescriptorDatabaseC2Ev(ptr noundef nonnull align 8 dereferenceable(8) %this) unnamed_addr #4 comdat align 2 {
entry:
  %this.addr = alloca ptr, align 8
  store ptr %this, ptr %this.addr, align 8
  %this1 = load ptr, ptr %this.addr, align 8
  store ptr getelementptr inbounds ({ [9 x ptr] }, ptr @_ZTVN6google8protobuf18DescriptorDatabaseE, i32 0, i32 0, i32 2), ptr %this1, align 8
  ret void
}

; Function Attrs: mustprogress uwtable
define void @_ZN6google8protobuf8compiler28SourceTreeDescriptorDatabaseC2EPNS1_10SourceTreeEPNS0_18DescriptorDatabaseE(ptr noundef nonnull align 8 dereferenceable(120) %this, ptr noundef %source_tree, ptr noundef %fallback_database) unnamed_addr #6 align 2 personality ptr @__gxx_personality_v0 {
entry:
  %this.addr = alloca ptr, align 8
  %source_tree.addr = alloca ptr, align 8
  %fallback_database.addr = alloca ptr, align 8
  %exn.slot = alloca ptr, align 8
  %ehselector.slot = alloca i32, align 4
  store ptr %this, ptr %this.addr, align 8
  store ptr %source_tree, ptr %source_tree.addr, align 8
  store ptr %fallback_database, ptr %fallback_database.addr, align 8
  %this1 = load ptr, ptr %this.addr, align 8
  call void @_ZN6google8protobuf18DescriptorDatabaseC2Ev(ptr noundef nonnull align 8 dereferenceable(8) %this1)
  store ptr getelementptr inbounds ({ [9 x ptr] }, ptr @_ZTVN6google8protobuf8compiler28SourceTreeDescriptorDatabaseE, i32 0, i32 0, i32 2), ptr %this1, align 8
  %source_tree_ = getelementptr inbounds %"class.google::protobuf::compiler::SourceTreeDescriptorDatabase", ptr %this1, i32 0, i32 1
  %0 = load ptr, ptr %source_tree.addr, align 8
  store ptr %0, ptr %source_tree_, align 8
  %fallback_database_ = getelementptr inbounds %"class.google::protobuf::compiler::SourceTreeDescriptorDatabase", ptr %this1, i32 0, i32 2
  %1 = load ptr, ptr %fallback_database.addr, align 8
  store ptr %1, ptr %fallback_database_, align 8
  %error_collector_ = getelementptr inbounds %"class.google::protobuf::compiler::SourceTreeDescriptorDatabase", ptr %this1, i32 0, i32 3
  store ptr null, ptr %error_collector_, align 8
  %using_validation_error_collector_ = getelementptr inbounds %"class.google::protobuf::compiler::SourceTreeDescriptorDatabase", ptr %this1, i32 0, i32 4
  store i8 0, ptr %using_validation_error_collector_, align 8
  %source_locations_ = getelementptr inbounds %"class.google::protobuf::compiler::SourceTreeDescriptorDatabase", ptr %this1, i32 0, i32 5
  invoke void @_ZN6google8protobuf8compiler19SourceLocationTableC1Ev(ptr noundef nonnull align 8 dereferenceable(64) %source_locations_)
          to label %invoke.cont unwind label %lpad

invoke.cont:                                      ; preds = %entry
  %validation_error_collector_ = getelementptr inbounds %"class.google::protobuf::compiler::SourceTreeDescriptorDatabase", ptr %this1, i32 0, i32 6
  invoke void @_ZN6google8protobuf8compiler28SourceTreeDescriptorDatabase24ValidationErrorCollectorC1EPS2_(ptr noundef nonnull align 8 dereferenceable(16) %validation_error_collector_, ptr noundef %this1)
          to label %invoke.cont3 unwind label %lpad2

invoke.cont3:                                     ; preds = %invoke.cont
  ret void

lpad:                                             ; preds = %entry
  %2 = landingpad { ptr, i32 }
          cleanup
  %3 = extractvalue { ptr, i32 } %2, 0
  store ptr %3, ptr %exn.slot, align 8
  %4 = extractvalue { ptr, i32 } %2, 1
  store i32 %4, ptr %ehselector.slot, align 4
  br label %ehcleanup

lpad2:                                            ; preds = %invoke.cont
  %5 = landingpad { ptr, i32 }
          cleanup
  %6 = extractvalue { ptr, i32 } %5, 0
  store ptr %6, ptr %exn.slot, align 8
  %7 = extractvalue { ptr, i32 } %5, 1
  store i32 %7, ptr %ehselector.slot, align 4
  call void @_ZN6google8protobuf8compiler19SourceLocationTableD1Ev(ptr noundef nonnull align 8 dereferenceable(64) %source_locations_) #3
  br label %ehcleanup

ehcleanup:                                        ; preds = %lpad2, %lpad
  call void @_ZN6google8protobuf18DescriptorDatabaseD2Ev(ptr noundef nonnull align 8 dereferenceable(8) %this1) #3
  br label %eh.resume

eh.resume:                                        ; preds = %ehcleanup
  %exn = load ptr, ptr %exn.slot, align 8
  %sel = load i32, ptr %ehselector.slot, align 4
  %lpad.val = insertvalue { ptr, i32 } poison, ptr %exn, 0
  %lpad.val4 = insertvalue { ptr, i32 } %lpad.val, i32 %sel, 1
  resume { ptr, i32 } %lpad.val4
}