; Function Attrs: mustprogress uwtable
define void @_ZN6google8protobuf8compiler28SourceTreeDescriptorDatabaseC2EPNS1_10SourceTreeEPNS0_18DescriptorDatabaseE(ptr noundef nonnull align 8 dereferenceable(120) %this, ptr noundef %source_tree, ptr noundef %fallback_database) unnamed_addr #6 align 2 personality ptr @__gxx_personality_v0 {
entry:
  store ptr getelementptr inbounds ({ [9 x ptr] }, ptr @_ZTVN6google8protobuf8compiler28SourceTreeDescriptorDatabaseE, i64 0, i32 0, i64 2), ptr %this, align 8
  %source_tree_ = getelementptr inbounds i8, ptr %this, i64 8
  store ptr %source_tree, ptr %source_tree_, align 8
  %fallback_database_ = getelementptr inbounds i8, ptr %this, i64 16
  store ptr %fallback_database, ptr %fallback_database_, align 8
  %error_collector_ = getelementptr inbounds i8, ptr %this, i64 24
  store ptr null, ptr %error_collector_, align 8
  %using_validation_error_collector_ = getelementptr inbounds i8, ptr %this, i64 32
  store i8 0, ptr %using_validation_error_collector_, align 8
  %source_locations_ = getelementptr inbounds i8, ptr %this, i64 40
  invoke void @_ZN6google8protobuf8compiler19SourceLocationTableC1Ev(ptr noundef nonnull align 8 dereferenceable(64) %source_locations_)
          to label %invoke.cont unwind label %lpad

invoke.cont:                                      ; preds = %entry
  %validation_error_collector_ = getelementptr inbounds i8, ptr %this, i64 104
  invoke void @_ZN6google8protobuf8compiler28SourceTreeDescriptorDatabase24ValidationErrorCollectorC1EPS2_(ptr noundef nonnull align 8 dereferenceable(16) %validation_error_collector_, ptr noundef nonnull %this)
          to label %invoke.cont3 unwind label %lpad2

invoke.cont3:                                     ; preds = %invoke.cont
  ret void

lpad:                                             ; preds = %entry
  %0 = landingpad { ptr, i32 }
          cleanup
  br label %ehcleanup

lpad2:                                            ; preds = %invoke.cont
  %1 = landingpad { ptr, i32 }
          cleanup
  tail call void @_ZN6google8protobuf8compiler19SourceLocationTableD1Ev(ptr noundef nonnull align 8 dereferenceable(64) %source_locations_) #25
  br label %ehcleanup

ehcleanup:                                        ; preds = %lpad2, %lpad
  %.pn = phi { ptr, i32 } [ %1, %lpad2 ], [ %0, %lpad ]
  tail call void @_ZN6google8protobuf18DescriptorDatabaseD2Ev(ptr noundef nonnull align 8 dereferenceable(8) %this) #25
  resume { ptr, i32 } %.pn
}